target datalayout = "e-m:e-p270:32:32-p271:32:32-p272:64:64-i64:64-i128:128-f80:128-n8:16:32:64-S128"
target triple = "x86_64-pc-linux-gnu"

%struct.boxf = type { %struct.pointf_s, %struct.pointf_s }
%struct.pointf_s = type { double, double }
%struct.Agobj_s = type { %struct.Agtag_s, ptr }
%struct.Agtag_s = type { i32, i64 }
%struct.Agraphinfo_t = type { %struct.Agrec_s, ptr, ptr, %struct.boxf, [4 x %struct.pointf_s], i8, i8, i8, i8, i32, double, double, i16, ptr, ptr, ptr, ptr, i32, ptr, ptr, ptr, ptr, i16, i16, i32, ptr, ptr, ptr, ptr, ptr, i32, ptr, ptr, %struct.nlist_t, ptr, ptr, i32, i32, i8, i8, i32, i32, i32, ptr, ptr, ptr, ptr, i8, i8, i8, i8, i8 }
%struct.Agrec_s = type { ptr, ptr }
%struct.nlist_t = type { ptr, i64 }

@stderr = external global ptr, align 8
@.str.55 = private unnamed_addr constant [58 x i8] c"integer overflow when trying to allocate %zu * %zu bytes\0A\00", align 1
@.str.56 = private unnamed_addr constant [49 x i8] c"out of memory when trying to allocate %zu bytes\0A\00", align 1

; Function Attrs: inlinehint mustprogress nounwind uwtable
define internal noundef ptr @_ZL9gv_callocmm(i64 noundef %0, i64 noundef %1) #14 {
  %3 = alloca i64, align 8
  %4 = alloca i64, align 8
  %5 = alloca ptr, align 8
  store i64 %0, ptr %3, align 8, !tbaa !69
  store i64 %1, ptr %4, align 8, !tbaa !69
  %6 = load i64, ptr %3, align 8, !tbaa !69
  %7 = icmp ugt i64 %6, 0
  br i1 %7, label %8, label %18

8:                                                ; preds = %2
  %9 = load i64, ptr %3, align 8, !tbaa !69
  %10 = udiv i64 -1, %9
  %11 = load i64, ptr %4, align 8, !tbaa !69
  %12 = icmp ult i64 %10, %11
  br i1 %12, label %13, label %18

13:                                               ; preds = %8
  %14 = load ptr, ptr @stderr, align 8, !tbaa !40
  %15 = load i64, ptr %3, align 8, !tbaa !69
  %16 = load i64, ptr %4, align 8, !tbaa !69
  %17 = call i32 (ptr, ptr, ...) @fprintf(ptr noundef %14, ptr noundef @.str.55, i64 noundef %15, i64 noundef %16) #3
  call void @_ZL13graphviz_exiti(i32 noundef 1) #23
  unreachable

18:                                               ; preds = %8, %2
  call void @llvm.lifetime.start.p0(i64 8, ptr %5) #3
  %19 = load i64, ptr %3, align 8, !tbaa !69
  %20 = load i64, ptr %4, align 8, !tbaa !69
  %21 = call noalias ptr @calloc(i64 noundef %19, i64 noundef %20) #27
  store ptr %21, ptr %5, align 8, !tbaa !42
  %22 = load i64, ptr %3, align 8, !tbaa !69
  %23 = icmp ugt i64 %22, 0
  br i1 %23, label %24, label %36

24:                                               ; preds = %18
  %25 = load i64, ptr %4, align 8, !tbaa !69
  %26 = icmp ugt i64 %25, 0
  br i1 %26, label %27, label %36

27:                                               ; preds = %24
  %28 = load ptr, ptr %5, align 8, !tbaa !42
  %29 = icmp eq ptr %28, null
  br i1 %29, label %30, label %36

30:                                               ; preds = %27
  %31 = load ptr, ptr @stderr, align 8, !tbaa !40
  %32 = load i64, ptr %3, align 8, !tbaa !69
  %33 = load i64, ptr %4, align 8, !tbaa !69
  %34 = mul i64 %32, %33
  %35 = call i32 (ptr, ptr, ...) @fprintf(ptr noundef %31, ptr noundef @.str.56, i64 noundef %34) #3
  call void @_ZL13graphviz_exiti(i32 noundef 1) #23
  unreachable

36:                                               ; preds = %27, %24, %18
  %37 = load ptr, ptr %5, align 8, !tbaa !42
  call void @llvm.lifetime.end.p0(i64 8, ptr %5) #3
  ret ptr %37
}

; Function Attrs: mustprogress nounwind uwtable
define internal void @_ZL12cloneClusterP8Agraph_sS0_(ptr noundef %0, ptr noundef %1) #4 {
  %3 = alloca ptr, align 8
  %4 = alloca ptr, align 8
  store ptr %0, ptr %3, align 8, !tbaa !30
  store ptr %1, ptr %4, align 8, !tbaa !30
  %5 = load ptr, ptr %3, align 8, !tbaa !30
  %6 = getelementptr inbounds nuw %struct.Agobj_s, ptr %5, i32 0, i32 1
  %7 = load ptr, ptr %6, align 8, !tbaa !32
  %8 = getelementptr inbounds nuw %struct.Agraphinfo_t, ptr %7, i32 0, i32 2
  %9 = load ptr, ptr %8, align 8, !tbaa !345
  %10 = load ptr, ptr %4, align 8, !tbaa !30
  %11 = getelementptr inbounds nuw %struct.Agobj_s, ptr %10, i32 0, i32 1
  %12 = load ptr, ptr %11, align 8, !tbaa !32
  %13 = getelementptr inbounds nuw %struct.Agraphinfo_t, ptr %12, i32 0, i32 2
  store ptr %9, ptr %13, align 8, !tbaa !345
  %14 = load ptr, ptr %3, align 8, !tbaa !30
  %15 = getelementptr inbounds nuw %struct.Agobj_s, ptr %14, i32 0, i32 1
  %16 = load ptr, ptr %15, align 8, !tbaa !32
  %17 = getelementptr inbounds nuw %struct.Agraphinfo_t, ptr %16, i32 0, i32 3
  %18 = load ptr, ptr %4, align 8, !tbaa !30
  %19 = getelementptr inbounds nuw %struct.Agobj_s, ptr %18, i32 0, i32 1
  %20 = load ptr, ptr %19, align 8, !tbaa !32
  %21 = getelementptr inbounds nuw %struct.Agraphinfo_t, ptr %20, i32 0, i32 3
  call void @llvm.memcpy.p0.p0.i64(ptr align 8 %21, ptr align 8 %17, i64 32, i1 false), !tbaa.struct !37
  ret void
}

; Function Attrs: mustprogress uwtable
define internal void @_ZL16cloneClusterTreeP8Agraph_sS0_(ptr noundef %0, ptr noundef %1) #7 {
  %3 = alloca ptr, align 8
  %4 = alloca ptr, align 8
  %5 = alloca i32, align 4
  %6 = alloca ptr, align 8
  store ptr %0, ptr %3, align 8, !tbaa !30
  store ptr %1, ptr %4, align 8, !tbaa !30
  call void @llvm.lifetime.start.p0(i64 4, ptr %5) #3
  %7 = load ptr, ptr %3, align 8, !tbaa !30
  %8 = load ptr, ptr %4, align 8, !tbaa !30
  call void @_ZL12cloneClusterP8Agraph_sS0_(ptr noundef %7, ptr noundef %8)
  %9 = load ptr, ptr %3, align 8, !tbaa !30
  %10 = getelementptr inbounds nuw %struct.Agobj_s, ptr %9, i32 0, i32 1
  %11 = load ptr, ptr %10, align 8, !tbaa !32
  %12 = getelementptr inbounds nuw %struct.Agraphinfo_t, ptr %11, i32 0, i32 24
  %13 = load i32, ptr %12, align 4, !tbaa !70
  %14 = icmp ne i32 %13, 0
  br i1 %14, label %15, label %82

15:                                               ; preds = %2
  %16 = load ptr, ptr %3, align 8, !tbaa !30
  %17 = getelementptr inbounds nuw %struct.Agobj_s, ptr %16, i32 0, i32 1
  %18 = load ptr, ptr %17, align 8, !tbaa !32
  %19 = getelementptr inbounds nuw %struct.Agraphinfo_t, ptr %18, i32 0, i32 24
  %20 = load i32, ptr %19, align 4, !tbaa !70
  %21 = load ptr, ptr %4, align 8, !tbaa !30
  %22 = getelementptr inbounds nuw %struct.Agobj_s, ptr %21, i32 0, i32 1
  %23 = load ptr, ptr %22, align 8, !tbaa !32
  %24 = getelementptr inbounds nuw %struct.Agraphinfo_t, ptr %23, i32 0, i32 24
  store i32 %20, ptr %24, align 4, !tbaa !70
  %25 = load ptr, ptr %3, align 8, !tbaa !30
  %26 = getelementptr inbounds nuw %struct.Agobj_s, ptr %25, i32 0, i32 1
  %27 = load ptr, ptr %26, align 8, !tbaa !32
  %28 = getelementptr inbounds nuw %struct.Agraphinfo_t, ptr %27, i32 0, i32 24
  %29 = load i32, ptr %28, align 4, !tbaa !70
  %30 = add nsw i32 1, %29
  %31 = sext i32 %30 to i64
  %32 = call noundef ptr @_ZL9gv_callocmm(i64 noundef %31, i64 noundef 8)
  %33 = load ptr, ptr %4, align 8, !tbaa !30
  %34 = getelementptr inbounds nuw %struct.Agobj_s, ptr %33, i32 0, i32 1
  %35 = load ptr, ptr %34, align 8, !tbaa !32
  %36 = getelementptr inbounds nuw %struct.Agraphinfo_t, ptr %35, i32 0, i32 25
  store ptr %32, ptr %36, align 8, !tbaa !96
  store i32 1, ptr %5, align 4, !tbaa !12
  br label %37

37:                                               ; preds = %78, %15
  %38 = load i32, ptr %5, align 4, !tbaa !12
  %39 = load ptr, ptr %3, align 8, !tbaa !30
  %40 = getelementptr inbounds nuw %struct.Agobj_s, ptr %39, i32 0, i32 1
  %41 = load ptr, ptr %40, align 8, !tbaa !32
  %42 = getelementptr inbounds nuw %struct.Agraphinfo_t, ptr %41, i32 0, i32 24
  %43 = load i32, ptr %42, align 4, !tbaa !70
  %44 = icmp sle i32 %38, %43
  br i1 %44, label %45, label %81

45:                                               ; preds = %37
  call void @llvm.lifetime.start.p0(i64 8, ptr %6) #3
  %46 = load ptr, ptr %3, align 8, !tbaa !30
  %47 = getelementptr inbounds nuw %struct.Agobj_s, ptr %46, i32 0, i32 1
  %48 = load ptr, ptr %47, align 8, !tbaa !32
  %49 = getelementptr inbounds nuw %struct.Agraphinfo_t, ptr %48, i32 0, i32 25
  %50 = load ptr, ptr %49, align 8, !tbaa !96
  %51 = load i32, ptr %5, align 4, !tbaa !12
  %52 = sext i32 %51 to i64
  %53 = getelementptr inbounds ptr, ptr %50, i64 %52
  %54 = load ptr, ptr %53, align 8, !tbaa !30
  %55 = getelementptr inbounds nuw %struct.Agobj_s, ptr %54, i32 0, i32 1
  %56 = load ptr, ptr %55, align 8, !tbaa !32
  %57 = getelementptr inbounds nuw %struct.Agraphinfo_t, ptr %56, i32 0, i32 13
  %58 = load ptr, ptr %57, align 8, !tbaa !97
  store ptr %58, ptr %6, align 8, !tbaa !30
  %59 = load ptr, ptr %6, align 8, !tbaa !30
  %60 = load ptr, ptr %4, align 8, !tbaa !30
  %61 = getelementptr inbounds nuw %struct.Agobj_s, ptr %60, i32 0, i32 1
  %62 = load ptr, ptr %61, align 8, !tbaa !32
  %63 = getelementptr inbounds nuw %struct.Agraphinfo_t, ptr %62, i32 0, i32 25
  %64 = load ptr, ptr %63, align 8, !tbaa !96
  %65 = load i32, ptr %5, align 4, !tbaa !12
  %66 = sext i32 %65 to i64
  %67 = getelementptr inbounds ptr, ptr %64, i64 %66
  store ptr %59, ptr %67, align 8, !tbaa !30
  %68 = load ptr, ptr %3, align 8, !tbaa !30
  %69 = getelementptr inbounds nuw %struct.Agobj_s, ptr %68, i32 0, i32 1
  %70 = load ptr, ptr %69, align 8, !tbaa !32
  %71 = getelementptr inbounds nuw %struct.Agraphinfo_t, ptr %70, i32 0, i32 25
  %72 = load ptr, ptr %71, align 8, !tbaa !96
  %73 = load i32, ptr %5, align 4, !tbaa !12
  %74 = sext i32 %73 to i64
  %75 = getelementptr inbounds ptr, ptr %72, i64 %74
  %76 = load ptr, ptr %75, align 8, !tbaa !30
  %77 = load ptr, ptr %6, align 8, !tbaa !30
  call void @_ZL16cloneClusterTreeP8Agraph_sS0_(ptr noundef %76, ptr noundef %77)
  call void @llvm.lifetime.end.p0(i64 8, ptr %6) #3
  br label %78

78:                                               ; preds = %45
  %79 = load i32, ptr %5, align 4, !tbaa !12
  %80 = add nsw i32 %79, 1
  store i32 %80, ptr %5, align 4, !tbaa !12
  br label %37, !llvm.loop !221

81:                                               ; preds = %37
  br label %82

82:                                               ; preds = %81, %2
  call void @llvm.lifetime.end.p0(i64 4, ptr %5) #3
  ret void
}