; Function Attrs: mustprogress nofree nounwind uwtable
define internal fastcc void @_ZL16cloneClusterTreeP8Agraph_sS0_(ptr noundef readonly captures(none) %0, ptr noundef readonly captures(none) %1) unnamed_addr #20 {
  %3 = getelementptr i8, ptr %0, i64 16
  %.val = load ptr, ptr %3, align 8, !tbaa !81
  %4 = getelementptr i8, ptr %1, i64 16
  %.val19 = load ptr, ptr %4, align 8, !tbaa !81
  %5 = getelementptr inbounds nuw i8, ptr %.val, i64 24
  %6 = load ptr, ptr %5, align 8, !tbaa !172
  %7 = getelementptr inbounds nuw i8, ptr %.val19, i64 24
  store ptr %6, ptr %7, align 8, !tbaa !172
  %8 = getelementptr inbounds nuw i8, ptr %.val, i64 32
  %9 = getelementptr inbounds nuw i8, ptr %.val19, i64 32
  tail call void @llvm.memcpy.p0.p0.i64(ptr noundef nonnull align 8 dereferenceable(32) %9, ptr noundef nonnull readonly align 8 dereferenceable(32) %8, i64 32, i1 false), !tbaa.struct !173
  %10 = load ptr, ptr %3, align 8, !tbaa !81
  %11 = getelementptr inbounds nuw i8, ptr %10, i64 236
  %12 = load i32, ptr %11, align 4, !tbaa !85
  %.not = icmp eq i32 %12, 0
  br i1 %.not, label %.loopexit, label %13

13:                                               ; preds = %2
  %14 = load ptr, ptr %4, align 8, !tbaa !81
  %15 = getelementptr inbounds nuw i8, ptr %14, i64 236
  store i32 %12, ptr %15, align 4, !tbaa !85
  %16 = load i32, ptr %11, align 4, !tbaa !85
  %17 = add nsw i32 %16, 1
  %18 = sext i32 %17 to i64
  %mul.ov.i = icmp slt i32 %16, -1
  br i1 %mul.ov.i, label %19, label %22

19:                                               ; preds = %13
  %20 = load ptr, ptr @stderr, align 8, !tbaa !38
  %21 = tail call i32 (ptr, ptr, ...) @fprintf(ptr noundef %20, ptr noundef nonnull @.str.55, i64 noundef range(i64 -2147483647, 2147483648) %18, i64 noundef 8) #33
  tail call fastcc void @_ZL13graphviz_exiti(i32 noundef 1) #32
  unreachable

22:                                               ; preds = %13
  %23 = icmp ne i32 %17, 0
  %24 = tail call noalias ptr @calloc(i64 noundef range(i64 -2147483647, 2147483648) %18, i64 noundef 8) #37
  %25 = icmp eq ptr %24, null
  %or.cond3.i = and i1 %23, %25
  br i1 %or.cond3.i, label %26, label %_ZL9gv_callocmm.exit

26:                                               ; preds = %22
  %27 = load ptr, ptr @stderr, align 8, !tbaa !38
  %28 = shl nuw nsw i64 %18, 3
  %29 = tail call i32 (ptr, ptr, ...) @fprintf(ptr noundef %27, ptr noundef nonnull @.str.56, i64 noundef %28) #33
  tail call fastcc void @_ZL13graphviz_exiti(i32 noundef 1) #32
  unreachable

_ZL9gv_callocmm.exit:                             ; preds = %22
  %30 = getelementptr inbounds nuw i8, ptr %14, i64 240
  store ptr %24, ptr %30, align 8, !tbaa !128
  %.not1820 = icmp slt i32 %16, 1
  br i1 %.not1820, label %.loopexit, label %.lr.ph

.lr.ph:                                           ; preds = %_ZL9gv_callocmm.exit, %.lr.ph
  %indvars.iv = phi i64 [ %indvars.iv.next, %.lr.ph ], [ 1, %_ZL9gv_callocmm.exit ]
  %31 = phi ptr [ %45, %.lr.ph ], [ %10, %_ZL9gv_callocmm.exit ]
  %32 = getelementptr inbounds nuw i8, ptr %31, i64 240
  %33 = load ptr, ptr %32, align 8, !tbaa !128
  %34 = getelementptr inbounds nuw ptr, ptr %33, i64 %indvars.iv
  %35 = load ptr, ptr %34, align 8, !tbaa !65
  %36 = getelementptr inbounds nuw i8, ptr %35, i64 16
  %37 = load ptr, ptr %36, align 8, !tbaa !81
  %38 = getelementptr inbounds nuw i8, ptr %37, i64 160
  %39 = load ptr, ptr %38, align 8, !tbaa !129
  %40 = load ptr, ptr %4, align 8, !tbaa !81
  %41 = getelementptr inbounds nuw i8, ptr %40, i64 240
  %42 = load ptr, ptr %41, align 8, !tbaa !128
  %43 = getelementptr inbounds nuw ptr, ptr %42, i64 %indvars.iv
  store ptr %39, ptr %43, align 8, !tbaa !65
  %44 = load ptr, ptr %34, align 8, !tbaa !65
  tail call fastcc void @_ZL16cloneClusterTreeP8Agraph_sS0_(ptr noundef %44, ptr noundef %39)
  %indvars.iv.next = add nuw nsw i64 %indvars.iv, 1
  %45 = load ptr, ptr %3, align 8, !tbaa !81
  %46 = getelementptr inbounds nuw i8, ptr %45, i64 236
  %47 = load i32, ptr %46, align 4, !tbaa !85
  %48 = sext i32 %47 to i64
  %.not18.not = icmp slt i64 %indvars.iv, %48
  br i1 %.not18.not, label %.lr.ph, label %.loopexit, !llvm.loop !174

.loopexit:                                        ; preds = %.lr.ph, %_ZL9gv_callocmm.exit, %2
  ret void
}